ccopy_reg
_reconstructor
p0
(caltaircms.sample.api.structures
OrderedBlocks
p1
c__builtin__
object
p2
Ntp3
Rp4
(dp5
S'blocks'
p6
ccollections
defaultdict
p7
(caltaircms.sample.api.structures
NoPushBack
p8
tp9
Rp10
S'*layout*'
p11
g0
(g8
g2
Ntp12
Rp13
(dp14
S'xs'
p15
(lp16
S'col2A'
p17
asS'zero'
p18
Nsbssb.